target datalayout = "e-m:e-p270:32:32-p271:32:32-p272:64:64-i64:64-i128:128-f80:128-n8:16:32:64-S128"
target triple = "x86_64-pc-linux-gnu"

%"class.cvc5::internal::EnvObj" = type { ptr, ptr }
%"class.cvc5::internal::theory::quantifiers::ieval::TermEvaluatorEntailed" = type <{ %"class.cvc5::internal::theory::quantifiers::ieval::TermEvaluator.base", [4 x i8], ptr, ptr, i8, [7 x i8] }>
%"class.cvc5::internal::theory::quantifiers::ieval::TermEvaluator.base" = type <{ %"class.cvc5::internal::EnvObj", i32 }>
%"class.cvc5::internal::NodeTemplate.385" = type { ptr }
%"class.cvc5::internal::expr::NodeValue" = type { i64, i64, ptr, [0 x ptr] }

; Function Attrs: inlinehint mustprogress nounwind uwtable
define linkonce_odr hidden void @_ZNK4cvc58internal12NodeTemplateILb0EE21assertTNodeNotExpiredEv(ptr noundef nonnull align 8 dereferenceable(8) %0) #8 comdat align 2 {
  %2 = alloca ptr, align 8
  store ptr %0, ptr %2, align 8, !tbaa !28
  ret void
}

; Function Attrs: mustprogress nounwind uwtable
define linkonce_odr hidden void @_ZN4cvc58internal12NodeTemplateILb0EED2Ev(ptr noundef nonnull align 8 dereferenceable(8) %0) unnamed_addr #6 comdat align 2 {
  %2 = alloca ptr, align 8
  store ptr %0, ptr %2, align 8, !tbaa !28
  ret void
}

; Function Attrs: mustprogress nounwind uwtable
define linkonce_odr hidden void @_ZN4cvc58internal12NodeTemplateILb0EEC2ERKS2_(ptr noundef nonnull align 8 dereferenceable(8) %0, ptr noundef nonnull align 8 dereferenceable(8) %1) unnamed_addr #6 comdat align 2 {
  %3 = alloca ptr, align 8
  %4 = alloca ptr, align 8
  store ptr %0, ptr %3, align 8, !tbaa !28
  store ptr %1, ptr %4, align 8, !tbaa !28
  %5 = load ptr, ptr %3, align 8
  %6 = load ptr, ptr %4, align 8, !tbaa !28
  %7 = getelementptr inbounds nuw %"class.cvc5::internal::NodeTemplate.385", ptr %6, i32 0, i32 0
  %8 = load ptr, ptr %7, align 8, !tbaa !31
  %9 = getelementptr inbounds nuw %"class.cvc5::internal::NodeTemplate.385", ptr %5, i32 0, i32 0
  store ptr %8, ptr %9, align 8, !tbaa !31
  ret void
}

; Function Attrs: inlinehint mustprogress uwtable
define linkonce_odr hidden noundef i32 @_ZNK4cvc58internal12NodeTemplateILb0EE7getKindEv(ptr noundef nonnull align 8 dereferenceable(8) %0) #5 comdat align 2 {
  %2 = alloca ptr, align 8
  store ptr %0, ptr %2, align 8, !tbaa !28
  %3 = load ptr, ptr %2, align 8
  call void @_ZNK4cvc58internal12NodeTemplateILb0EE21assertTNodeNotExpiredEv(ptr noundef nonnull align 8 dereferenceable(8) %3)
  %4 = getelementptr inbounds nuw %"class.cvc5::internal::NodeTemplate.385", ptr %3, i32 0, i32 0
  %5 = load ptr, ptr %4, align 8, !tbaa !31
  %6 = getelementptr inbounds nuw %"class.cvc5::internal::expr::NodeValue", ptr %5, i32 0, i32 1
  %7 = load i64, ptr %6, align 8
  %8 = and i64 %7, 1023
  %9 = trunc i64 %8 to i32
  ret i32 %9
}

; Function Attrs: mustprogress uwtable
define hidden void @_ZN4cvc58internal6theory11quantifiers5ieval21TermEvaluatorEntailed12evaluateBaseERKNS3_5StateENS0_12NodeTemplateILb0EEE(ptr dead_on_unwind noalias writable sret(%"class.cvc5::internal::NodeTemplate.385") align 8 %0, ptr noundef nonnull align 8 dereferenceable(41) %1, ptr noundef nonnull align 8 dereferenceable(424) %2, ptr noundef %3) unnamed_addr #4 align 2 personality ptr @__gxx_personality_v0 {
  %5 = alloca ptr, align 8
  %6 = alloca ptr, align 8
  %7 = alloca ptr, align 8
  %8 = alloca ptr, align 8
  %9 = alloca %"class.cvc5::internal::NodeTemplate.385", align 8
  %10 = alloca ptr, align 8
  %11 = alloca i32, align 4
  %12 = alloca %"class.cvc5::internal::NodeTemplate.385", align 8
  %13 = alloca i1, align 1
  store ptr %0, ptr %5, align 8
  store ptr %1, ptr %6, align 8, !tbaa !17
  store ptr %2, ptr %7, align 8, !tbaa !26
  store ptr %3, ptr %8, align 8, !tbaa !28
  %14 = load ptr, ptr %6, align 8
  %15 = call noundef i32 @_ZNK4cvc58internal12NodeTemplateILb0EE7getKindEv(ptr noundef nonnull align 8 dereferenceable(8) %3)
  %16 = icmp eq i32 %15, 365
  br i1 %16, label %17, label %19

17:                                               ; preds = %4
  %18 = load ptr, ptr %7, align 8, !tbaa !26
  call void @_ZNK4cvc58internal6theory11quantifiers5ieval5State7getSomeEv(ptr dead_on_unwind writable sret(%"class.cvc5::internal::NodeTemplate.385") align 8 %0, ptr noundef nonnull align 8 dereferenceable(424) %18)
  br label %54

19:                                               ; preds = %4
  %20 = getelementptr inbounds nuw %"class.cvc5::internal::theory::quantifiers::ieval::TermEvaluatorEntailed", ptr %14, i32 0, i32 2
  %21 = load ptr, ptr %20, align 8, !tbaa !30
  call void @_ZN4cvc58internal12NodeTemplateILb0EEC2ERKS2_(ptr noundef nonnull align 8 dereferenceable(8) %9, ptr noundef nonnull align 8 dereferenceable(8) %3)
  %22 = load ptr, ptr %21, align 8, !tbaa !12
  %23 = getelementptr inbounds ptr, ptr %22, i64 2
  %24 = load ptr, ptr %23, align 8
  store i1 false, ptr %13, align 1
  %25 = invoke noundef zeroext i1 %24(ptr noundef nonnull align 8 dereferenceable(160) %21, ptr noundef %9)
          to label %26 unwind label %42

26:                                               ; preds = %19
  br i1 %25, label %27, label %35

27:                                               ; preds = %26
  %28 = getelementptr inbounds nuw %"class.cvc5::internal::theory::quantifiers::ieval::TermEvaluatorEntailed", ptr %14, i32 0, i32 2
  %29 = load ptr, ptr %28, align 8, !tbaa !30
  invoke void @_ZN4cvc58internal12NodeTemplateILb0EEC2ERKS2_(ptr noundef nonnull align 8 dereferenceable(8) %12, ptr noundef nonnull align 8 dereferenceable(8) %3)
          to label %30 unwind label %42

30:                                               ; preds = %27
  store i1 true, ptr %13, align 1
  %31 = load ptr, ptr %29, align 8, !tbaa !12
  %32 = getelementptr inbounds ptr, ptr %31, i64 4
  %33 = load ptr, ptr %32, align 8
  invoke void %33(ptr dead_on_unwind writable sret(%"class.cvc5::internal::NodeTemplate.385") align 8 %0, ptr noundef nonnull align 8 dereferenceable(160) %29, ptr noundef %12)
          to label %34 unwind label %46

34:                                               ; preds = %30
  br label %38

35:                                               ; preds = %26
  %36 = load ptr, ptr %7, align 8, !tbaa !26
  invoke void @_ZNK4cvc58internal6theory11quantifiers5ieval5State7getNoneEv(ptr dead_on_unwind writable sret(%"class.cvc5::internal::NodeTemplate.385") align 8 %0, ptr noundef nonnull align 8 dereferenceable(424) %36)
          to label %37 unwind label %46

37:                                               ; preds = %35
  br label %38

38:                                               ; preds = %37, %34
  %39 = load i1, ptr %13, align 1
  br i1 %39, label %40, label %41

40:                                               ; preds = %38
  call void @_ZN4cvc58internal12NodeTemplateILb0EED2Ev(ptr noundef nonnull align 8 dereferenceable(8) %12) #3
  br label %41

41:                                               ; preds = %40, %38
  call void @_ZN4cvc58internal12NodeTemplateILb0EED2Ev(ptr noundef nonnull align 8 dereferenceable(8) %9) #3
  br label %54

42:                                               ; preds = %27, %19
  %43 = landingpad { ptr, i32 }
          cleanup
  %44 = extractvalue { ptr, i32 } %43, 0
  store ptr %44, ptr %10, align 8
  %45 = extractvalue { ptr, i32 } %43, 1
  store i32 %45, ptr %11, align 4
  br label %53

46:                                               ; preds = %35, %30
  %47 = landingpad { ptr, i32 }
          cleanup
  %48 = extractvalue { ptr, i32 } %47, 0
  store ptr %48, ptr %10, align 8
  %49 = extractvalue { ptr, i32 } %47, 1
  store i32 %49, ptr %11, align 4
  %50 = load i1, ptr %13, align 1
  br i1 %50, label %51, label %52

51:                                               ; preds = %46
  call void @_ZN4cvc58internal12NodeTemplateILb0EED2Ev(ptr noundef nonnull align 8 dereferenceable(8) %12) #3
  br label %52

52:                                               ; preds = %51, %46
  br label %53

53:                                               ; preds = %52, %42
  call void @_ZN4cvc58internal12NodeTemplateILb0EED2Ev(ptr noundef nonnull align 8 dereferenceable(8) %9) #3
  br label %55

54:                                               ; preds = %41, %17
  ret void

55:                                               ; preds = %53
  %56 = load ptr, ptr %10, align 8
  %57 = load i32, ptr %11, align 4
  %58 = insertvalue { ptr, i32 } poison, ptr %56, 0
  %59 = insertvalue { ptr, i32 } %58, i32 %57, 1
  resume { ptr, i32 } %59
}