; Function Attrs: mustprogress uwtable
define hidden void @_ZN4cvc58internal6theory11quantifiers5ieval21TermEvaluatorEntailed12evaluateBaseERKNS3_5StateENS0_12NodeTemplateILb0EEE(ptr dead_on_unwind noalias writable sret(%"class.cvc5::internal::NodeTemplate.385") align 8 %0, ptr noundef nonnull readonly align 8 captures(none) dereferenceable(41) %1, ptr noundef nonnull align 8 dereferenceable(424) %2, ptr noundef readonly captures(none) %3) unnamed_addr #3 align 2 personality ptr @__gxx_personality_v0 {
  %5 = alloca %"class.cvc5::internal::NodeTemplate.385", align 8
  %6 = alloca %"class.cvc5::internal::NodeTemplate.385", align 8
  %7 = load ptr, ptr %3, align 8, !tbaa !20
  %8 = getelementptr inbounds nuw i8, ptr %7, i64 8
  %9 = load i64, ptr %8, align 8
  %10 = and i64 %9, 1023
  %11 = icmp eq i64 %10, 365
  br i1 %11, label %12, label %13

12:                                               ; preds = %4
  tail call void @_ZNK4cvc58internal6theory11quantifiers5ieval5State7getSomeEv(ptr dead_on_unwind writable sret(%"class.cvc5::internal::NodeTemplate.385") align 8 %0, ptr noundef nonnull align 8 dereferenceable(424) %2)
  br label %27

13:                                               ; preds = %4
  %14 = getelementptr inbounds nuw i8, ptr %1, i64 24
  %15 = load ptr, ptr %14, align 8, !tbaa !23
  store ptr %7, ptr %5, align 8, !tbaa !20
  %16 = load ptr, ptr %15, align 8, !tbaa !3
  %17 = getelementptr inbounds nuw i8, ptr %16, i64 16
  %18 = load ptr, ptr %17, align 8
  %19 = call noundef zeroext i1 %18(ptr noundef nonnull align 8 dereferenceable(160) %15, ptr noundef nonnull %5)
  br i1 %19, label %20, label %26

20:                                               ; preds = %13
  %21 = load ptr, ptr %14, align 8, !tbaa !23
  %22 = load ptr, ptr %3, align 8, !tbaa !20
  store ptr %22, ptr %6, align 8, !tbaa !20
  %23 = load ptr, ptr %21, align 8, !tbaa !3
  %24 = getelementptr inbounds nuw i8, ptr %23, i64 32
  %25 = load ptr, ptr %24, align 8
  call void %25(ptr dead_on_unwind writable sret(%"class.cvc5::internal::NodeTemplate.385") align 8 %0, ptr noundef nonnull align 8 dereferenceable(160) %21, ptr noundef nonnull %6)
  br label %27

26:                                               ; preds = %13
  call void @_ZNK4cvc58internal6theory11quantifiers5ieval5State7getNoneEv(ptr dead_on_unwind writable sret(%"class.cvc5::internal::NodeTemplate.385") align 8 %0, ptr noundef nonnull align 8 dereferenceable(424) %2)
  br label %27

27:                                               ; preds = %26, %20, %12
  ret void
}